; ModuleID = '32/542.cpp'
source_filename = "32/542.cpp"
target datalayout = "e-m:e-p270:32:32-p271:32:32-p272:64:64-i64:64-f80:128-n8:16:32:64-S128"
target triple = "x86_64-pc-linux-gnu"

%"class.std::ios_base::Init" = type { i8 }
%"class.std::basic_ostream" = type { i32 (...)**, %"class.std::basic_ios" }
%"class.std::basic_ios" = type { %"class.std::ios_base", %"class.std::basic_ostream"*, i8, i8, %"class.std::basic_streambuf"*, %"class.std::ctype"*, %"class.std::num_put"*, %"class.std::num_get"* }
%"class.std::ios_base" = type { i32 (...)**, i64, i64, i32, i32, i32, %"struct.std::ios_base::_Callback_list"*, %"struct.std::ios_base::_Words", [8 x %"struct.std::ios_base::_Words"], i32, %"struct.std::ios_base::_Words"*, %"class.std::locale" }
%"struct.std::ios_base::_Callback_list" = type { %"struct.std::ios_base::_Callback_list"*, void (i32, %"class.std::ios_base"*, i32)*, i32, i32 }
%"struct.std::ios_base::_Words" = type { i8*, i64 }
%"class.std::locale" = type { %"class.std::locale::_Impl"* }
%"class.std::locale::_Impl" = type { i32, %"class.std::locale::facet"**, i64, %"class.std::locale::facet"**, i8** }
%"class.std::locale::facet" = type <{ i32 (...)**, i32, [4 x i8] }>
%"class.std::basic_streambuf" = type { i32 (...)**, i8*, i8*, i8*, i8*, i8*, i8*, %"class.std::locale" }
%"class.std::ctype" = type <{ %"class.std::locale::facet.base", [4 x i8], %struct.__locale_struct*, i8, [7 x i8], i32*, i32*, i16*, i8, [256 x i8], [256 x i8], i8, [6 x i8] }>
%"class.std::locale::facet.base" = type <{ i32 (...)**, i32 }>
%struct.__locale_struct = type { [13 x %struct.__locale_data*], i16*, i32*, i32*, [13 x i8*] }
%struct.__locale_data = type opaque
%"class.std::num_put" = type { %"class.std::locale::facet.base", [4 x i8] }
%"class.std::num_get" = type { %"class.std::locale::facet.base", [4 x i8] }

@_ZStL8__ioinit = internal global %"class.std::ios_base::Init" zeroinitializer, align 1
@__dso_handle = external hidden global i8
@_ZSt4cout = external dso_local global %"class.std::basic_ostream", align 8
@.str = private unnamed_addr constant [2 x i8] c"\0A\00", align 1
@llvm.global_ctors = appending global [1 x { i32, void ()*, i8* }] [{ i32, void ()*, i8* } { i32 65535, void ()* @_GLOBAL__sub_I_542.cpp, i8* null }]

; Function Attrs: noinline uwtable
define internal void @__cxx_global_var_init() #0 section ".text.startup" {
  call void @_ZNSt8ios_base4InitC1Ev(%"class.std::ios_base::Init"* @_ZStL8__ioinit)
  %1 = call i32 @__cxa_atexit(void (i8*)* bitcast (void (%"class.std::ios_base::Init"*)* @_ZNSt8ios_base4InitD1Ev to void (i8*)*), i8* getelementptr inbounds (%"class.std::ios_base::Init", %"class.std::ios_base::Init"* @_ZStL8__ioinit, i32 0, i32 0), i8* @__dso_handle) #3
  ret void
}

declare dso_local void @_ZNSt8ios_base4InitC1Ev(%"class.std::ios_base::Init"*) unnamed_addr #1

; Function Attrs: nounwind
declare dso_local void @_ZNSt8ios_base4InitD1Ev(%"class.std::ios_base::Init"*) unnamed_addr #2

; Function Attrs: nounwind
declare dso_local i32 @__cxa_atexit(void (i8*)*, i8*, i8*) #3

; Function Attrs: noinline norecurse uwtable
define dso_local i32 @main() #4 {
  %1 = alloca i32, align 4
  %2 = alloca [100 x i32], align 16
  %3 = alloca [100 x i32], align 16
  %4 = alloca i32, align 4
  %5 = alloca i32, align 4
  %6 = alloca i32, align 4
  %7 = alloca i32, align 4
  %8 = alloca i32, align 4
  %9 = alloca i32, align 4
  %10 = alloca i32, align 4
  store i32 0, i32* %1, align 4
  store i32 0, i32* %5, align 4
  %11 = call i32 @getchar()
  %12 = sub nsw i32 %11, 48
  store i32 %12, i32* %5, align 4
  br label %13

13:                                               ; preds = %16, %0
  %14 = call i32 @getchar()
  store i32 %14, i32* %4, align 4
  %15 = icmp ne i32 %14, 10
  br i1 %15, label %16, label %22

16:                                               ; preds = %13
  %17 = load i32, i32* %5, align 4
  %18 = mul nsw i32 %17, 10
  %19 = load i32, i32* %4, align 4
  %20 = add nsw i32 %18, %19
  %21 = sub nsw i32 %20, 48
  store i32 %21, i32* %5, align 4
  br label %13

22:                                               ; preds = %13
  store i32 0, i32* %6, align 4
  store i32 0, i32* %8, align 4
  store i32 0, i32* %9, align 4
  store i32 1, i32* %10, align 4
  br label %23

23:                                               ; preds = %137, %22
  %24 = load i32, i32* %10, align 4
  %25 = load i32, i32* %5, align 4
  %26 = icmp sle i32 %24, %25
  br i1 %26, label %27, label %140

27:                                               ; preds = %23
  store i32 0, i32* %8, align 4
  store i32 0, i32* %9, align 4
  br label %28

28:                                               ; preds = %31, %27
  %29 = call i32 @getchar()
  store i32 %29, i32* %4, align 4
  %30 = icmp ne i32 %29, 10
  br i1 %30, label %31, label %39

31:                                               ; preds = %28
  %32 = load i32, i32* %4, align 4
  %33 = sub nsw i32 %32, 48
  %34 = load i32, i32* %8, align 4
  %35 = sext i32 %34 to i64
  %36 = getelementptr inbounds [100 x i32], [100 x i32]* %2, i64 0, i64 %35
  store i32 %33, i32* %36, align 4
  %37 = load i32, i32* %8, align 4
  %38 = add nsw i32 %37, 1
  store i32 %38, i32* %8, align 4
  br label %28

39:                                               ; preds = %28
  %40 = load i32, i32* %8, align 4
  %41 = add nsw i32 %40, -1
  store i32 %41, i32* %8, align 4
  br label %42

42:                                               ; preds = %45, %39
  %43 = call i32 @getchar()
  store i32 %43, i32* %4, align 4
  %44 = icmp ne i32 %43, 10
  br i1 %44, label %45, label %53

45:                                               ; preds = %42
  %46 = load i32, i32* %4, align 4
  %47 = sub nsw i32 %46, 48
  %48 = load i32, i32* %9, align 4
  %49 = sext i32 %48 to i64
  %50 = getelementptr inbounds [100 x i32], [100 x i32]* %3, i64 0, i64 %49
  store i32 %47, i32* %50, align 4
  %51 = load i32, i32* %9, align 4
  %52 = add nsw i32 %51, 1
  store i32 %52, i32* %9, align 4
  br label %42

53:                                               ; preds = %42
  %54 = load i32, i32* %9, align 4
  %55 = add nsw i32 %54, -1
  store i32 %55, i32* %9, align 4
  %56 = load i32, i32* %9, align 4
  store i32 %56, i32* %6, align 4
  br label %57

57:                                               ; preds = %74, %53
  %58 = load i32, i32* %6, align 4
  %59 = icmp sge i32 %58, 0
  br i1 %59, label %60, label %77

60:                                               ; preds = %57
  %61 = load i32, i32* %6, align 4
  %62 = sext i32 %61 to i64
  %63 = getelementptr inbounds [100 x i32], [100 x i32]* %3, i64 0, i64 %62
  %64 = load i32, i32* %63, align 4
  %65 = load i32, i32* %8, align 4
  %66 = load i32, i32* %9, align 4
  %67 = sub nsw i32 %65, %66
  %68 = load i32, i32* %6, align 4
  %69 = add nsw i32 %67, %68
  %70 = sext i32 %69 to i64
  %71 = getelementptr inbounds [100 x i32], [100 x i32]* %2, i64 0, i64 %70
  %72 = load i32, i32* %71, align 4
  %73 = sub nsw i32 %72, %64
  store i32 %73, i32* %71, align 4
  br label %74

74:                                               ; preds = %60
  %75 = load i32, i32* %6, align 4
  %76 = add nsw i32 %75, -1
  store i32 %76, i32* %6, align 4
  br label %57

77:                                               ; preds = %57
  %78 = load i32, i32* %8, align 4
  store i32 %78, i32* %6, align 4
  br label %79

79:                                               ; preds = %101, %77
  %80 = load i32, i32* %6, align 4
  %81 = icmp sge i32 %80, 1
  br i1 %81, label %82, label %104

82:                                               ; preds = %79
  %83 = load i32, i32* %6, align 4
  %84 = sext i32 %83 to i64
  %85 = getelementptr inbounds [100 x i32], [100 x i32]* %2, i64 0, i64 %84
  %86 = load i32, i32* %85, align 4
  %87 = icmp slt i32 %86, 0
  br i1 %87, label %88, label %100

88:                                               ; preds = %82
  %89 = load i32, i32* %6, align 4
  %90 = sext i32 %89 to i64
  %91 = getelementptr inbounds [100 x i32], [100 x i32]* %2, i64 0, i64 %90
  %92 = load i32, i32* %91, align 4
  %93 = add nsw i32 %92, 10
  store i32 %93, i32* %91, align 4
  %94 = load i32, i32* %6, align 4
  %95 = sub nsw i32 %94, 1
  %96 = sext i32 %95 to i64
  %97 = getelementptr inbounds [100 x i32], [100 x i32]* %2, i64 0, i64 %96
  %98 = load i32, i32* %97, align 4
  %99 = sub nsw i32 %98, 1
  store i32 %99, i32* %97, align 4
  br label %100

100:                                              ; preds = %88, %82
  br label %101

101:                                              ; preds = %100
  %102 = load i32, i32* %6, align 4
  %103 = add nsw i32 %102, -1
  store i32 %103, i32* %6, align 4
  br label %79

104:                                              ; preds = %79
  store i32 0, i32* %6, align 4
  br label %105

105:                                              ; preds = %111, %104
  %106 = load i32, i32* %6, align 4
  %107 = sext i32 %106 to i64
  %108 = getelementptr inbounds [100 x i32], [100 x i32]* %2, i64 0, i64 %107
  %109 = load i32, i32* %108, align 4
  %110 = icmp eq i32 %109, 0
  br i1 %110, label %111, label %114

111:                                              ; preds = %105
  %112 = load i32, i32* %6, align 4
  %113 = add nsw i32 %112, 1
  store i32 %113, i32* %6, align 4
  br label %105

114:                                              ; preds = %105
  %115 = load i32, i32* %6, align 4
  store i32 %115, i32* %7, align 4
  br label %116

116:                                              ; preds = %126, %114
  %117 = load i32, i32* %7, align 4
  %118 = load i32, i32* %8, align 4
  %119 = icmp sle i32 %117, %118
  br i1 %119, label %120, label %129

120:                                              ; preds = %116
  %121 = load i32, i32* %7, align 4
  %122 = sext i32 %121 to i64
  %123 = getelementptr inbounds [100 x i32], [100 x i32]* %2, i64 0, i64 %122
  %124 = load i32, i32* %123, align 4
  %125 = call dereferenceable(272) %"class.std::basic_ostream"* @_ZNSolsEi(%"class.std::basic_ostream"* @_ZSt4cout, i32 %124)
  br label %126

126:                                              ; preds = %120
  %127 = load i32, i32* %7, align 4
  %128 = add nsw i32 %127, 1
  store i32 %128, i32* %7, align 4
  br label %116

129:                                              ; preds = %116
  %130 = call dereferenceable(272) %"class.std::basic_ostream"* @_ZStlsISt11char_traitsIcEERSt13basic_ostreamIcT_ES5_PKc(%"class.std::basic_ostream"* dereferenceable(272) @_ZSt4cout, i8* getelementptr inbounds ([2 x i8], [2 x i8]* @.str, i64 0, i64 0))
  %131 = load i32, i32* %10, align 4
  %132 = load i32, i32* %5, align 4
  %133 = icmp ne i32 %131, %132
  br i1 %133, label %134, label %136

134:                                              ; preds = %129
  %135 = call i32 @getchar()
  store i32 %135, i32* %4, align 4
  br label %136

136:                                              ; preds = %134, %129
  br label %137

137:                                              ; preds = %136
  %138 = load i32, i32* %10, align 4
  %139 = add nsw i32 %138, 1
  store i32 %139, i32* %10, align 4
  br label %23

140:                                              ; preds = %23
  %141 = load i32, i32* %1, align 4
  ret i32 %141
}

declare dso_local i32 @getchar() #1

declare dso_local dereferenceable(272) %"class.std::basic_ostream"* @_ZNSolsEi(%"class.std::basic_ostream"*, i32) #1

declare dso_local dereferenceable(272) %"class.std::basic_ostream"* @_ZStlsISt11char_traitsIcEERSt13basic_ostreamIcT_ES5_PKc(%"class.std::basic_ostream"* dereferenceable(272), i8*) #1

; Function Attrs: noinline uwtable
define internal void @_GLOBAL__sub_I_542.cpp() #0 section ".text.startup" {
  call void @__cxx_global_var_init()
  ret void
}


!llvm.module.flags = !{!0}
!llvm.ident = !{!1}

!0 = !{i32 1, !"wchar_size", i32 4}
!1 = !{!"clang version 10.0.0-4ubuntu1 "}
